(i__main__
Datastore
p0
(dp1
S'recursivedata'
p2
(lp3
(lp4
I1
aF4.0411949157714844e-05
aa(lp5
I2
aF3.607273101806641e-05
aa(lp6
I2
aF3.221035003662109e-05
aa(lp7
I3
aF3.230571746826172e-05
aa(lp8
I3
aF3.0469894409179687e-05
aa(lp9
I3
aF3.209114074707031e-05
aa(lp10
I4
aF4.15802001953125e-05
aa(lp11
I4
aF3.0541419982910155e-05
aa(lp12
I4
aF3.180503845214844e-05
aa(lp13
I4
aF3.3020973205566406e-05
aa(lp14
I5
aF3.192424774169922e-05
aa(lp15
I5
aF3.6334991455078126e-05
aa(lp16
I5
aF3.0446052551269532e-05
aa(lp17
I5
aF3.173351287841797e-05
aa(lp18
I5
aF3.2973289489746096e-05
aa(lp19
I6
aF3.275871276855469e-05
aa(lp20
I6
aF3.266334533691406e-05
aa(lp21
I6
aF3.0422210693359374e-05
aa(lp22
I6
aF3.268718719482422e-05
aa(lp23
I6
aF3.1781196594238284e-05
aa(lp24
I6
aF3.2830238342285154e-05
aa(lp25
I7
aF3.2734870910644534e-05
aa(lp26
I7
aF3.197193145751953e-05
aa(lp27
I7
aF3.268718719482422e-05
aa(lp28
I7
aF3.213882446289063e-05
aa(lp29
I7
aF3.261566162109375e-05
aa(lp30
I7
aF3.5429000854492186e-05
aa(lp31
I7
aF3.8003921508789064e-05
aa(lp32
I8
aF6.0629844665527346e-05
aa(lp33
I8
aF3.2520294189453126e-05
aa(lp34
I8
aF3.249645233154297e-05
aa(lp35
I8
aF3.0517578125e-05
aa(lp36
I8
aF3.249645233154297e-05
aa(lp37
I8
aF3.2019615173339846e-05
aa(lp38
I8
aF3.3402442932128905e-05
aa(lp39
I8
aF3.359317779541016e-05
aa(lp40
I9
aF3.2949447631835935e-05
aa(lp41
I9
aF3.170967102050781e-05
aa(lp42
I9
aF3.292560577392578e-05
aa(lp43
I9
aF3.3903121948242185e-05
aa(lp44
I9
aF4.711151123046875e-05
aa(lp45
I9
aF3.259181976318359e-05
aa(lp46
I9
aF3.180503845214844e-05
aa(lp47
I9
aF3.2806396484375e-05
aa(lp48
I9
aF3.3903121948242185e-05
aa(lp49
I10
aF3.2782554626464844e-05
aa(lp50
I10
aF3.2019615173339846e-05
aa(lp51
I10
aF3.259181976318359e-05
aa(lp52
I10
aF3.359317779541016e-05
aa(lp53
I10
aF3.073215484619141e-05
aa(lp54
I10
aF3.271102905273437e-05
aa(lp55
I10
aF3.3521652221679686e-05
aa(lp56
I10
aF3.151893615722656e-05
aa(lp57
I10
aF3.275871276855469e-05
aa(lp58
I10
aF4.851818084716797e-05
aasS'rawdata'
p59
(lp60
(lp61
I1
aF3.4189224243164064e-05
aF4.0411949157714844e-05
aa(lp62
I2
aF3.309249877929688e-05
aF3.607273101806641e-05
aF2.3603439331054688e-05
aF3.221035003662109e-05
aa(lp63
I3
aF3.120899200439453e-05
aF3.230571746826172e-05
aF2.0122528076171876e-05
aF3.0469894409179687e-05
aF2.067089080810547e-05
aF3.209114074707031e-05
aa(lp64
I4
aF3.287792205810547e-05
aF4.15802001953125e-05
aF2.0122528076171876e-05
aF3.0541419982910155e-05
aF2.0933151245117187e-05
aF3.180503845214844e-05
aF2.1791458129882814e-05
aF3.3020973205566406e-05
aa(lp65
I5
aF3.139972686767578e-05
aF3.192424774169922e-05
aF2.1576881408691406e-05
aF3.6334991455078126e-05
aF2.002716064453125e-05
aF3.0446052551269532e-05
aF2.0575523376464843e-05
aF3.173351287841797e-05
aF2.162456512451172e-05
aF3.2973289489746096e-05
aa(lp66
I6
aF3.142356872558594e-05
aF3.275871276855469e-05
aF2.1576881408691406e-05
aF3.266334533691406e-05
aF1.9931793212890624e-05
aF3.0422210693359374e-05
aF2.1910667419433595e-05
aF3.268718719482422e-05
aF2.1004676818847655e-05
aF3.1781196594238284e-05
aF2.1409988403320312e-05
aF3.2830238342285154e-05
aa(lp67
I7
aF3.1900405883789065e-05
aF3.2734870910644534e-05
aF2.1004676818847655e-05
aF3.197193145751953e-05
aF2.1529197692871093e-05
aF3.268718719482422e-05
aF1.9931793212890624e-05
aF3.213882446289063e-05
aF2.8634071350097655e-05
aF3.261566162109375e-05
aF2.1076202392578126e-05
aF3.5429000854492186e-05
aF2.5081634521484376e-05
aF3.8003921508789064e-05
aa(lp68
I8
aF3.838539123535156e-05
aF6.0629844665527346e-05
aF4.0435791015625e-05
aF3.2520294189453126e-05
aF2.1719932556152342e-05
aF3.249645233154297e-05
aF2.02178955078125e-05
aF3.0517578125e-05
aF2.1910667419433595e-05
aF3.249645233154297e-05
aF2.086162567138672e-05
aF3.2019615173339846e-05
aF2.1505355834960938e-05
aF3.3402442932128905e-05
aF2.193450927734375e-05
aF3.359317779541016e-05
aa(lp69
I9
aF3.218650817871094e-05
aF3.2949447631835935e-05
aF2.048015594482422e-05
aF3.170967102050781e-05
aF2.162456512451172e-05
aF3.292560577392578e-05
aF2.2196769714355467e-05
aF3.3903121948242185e-05
aF2.238750457763672e-05
aF4.711151123046875e-05
aF2.148151397705078e-05
aF3.259181976318359e-05
aF2.0885467529296874e-05
aF3.180503845214844e-05
aF2.1791458129882814e-05
aF3.2806396484375e-05
aF2.2411346435546875e-05
aF3.3903121948242185e-05
aa(lp70
I10
aF3.2114982604980466e-05
aF3.2782554626464844e-05
aF2.0956993103027345e-05
aF3.2019615173339846e-05
aF2.143383026123047e-05
aF3.259181976318359e-05
aF2.2101402282714844e-05
aF3.359317779541016e-05
aF2.033710479736328e-05
aF3.073215484619141e-05
aF2.160072326660156e-05
aF3.271102905273437e-05
aF2.2101402282714844e-05
aF3.3521652221679686e-05
aF2.0837783813476564e-05
aF3.151893615722656e-05
aF2.1719932556152342e-05
aF3.275871276855469e-05
aF2.25067138671875e-05
aF4.851818084716797e-05
aasS'basedata'
p71
(lp72
(lp73
I1
aF3.4189224243164064e-05
aa(lp74
I2
aF3.309249877929688e-05
aa(lp75
I2
aF2.3603439331054688e-05
aa(lp76
I3
aF3.120899200439453e-05
aa(lp77
I3
aF2.0122528076171876e-05
aa(lp78
I3
aF2.067089080810547e-05
aa(lp79
I4
aF3.287792205810547e-05
aa(lp80
I4
aF2.0122528076171876e-05
aa(lp81
I4
aF2.0933151245117187e-05
aa(lp82
I4
aF2.1791458129882814e-05
aa(lp83
I5
aF3.139972686767578e-05
aa(lp84
I5
aF2.1576881408691406e-05
aa(lp85
I5
aF2.002716064453125e-05
aa(lp86
I5
aF2.0575523376464843e-05
aa(lp87
I5
aF2.162456512451172e-05
aa(lp88
I6
aF3.142356872558594e-05
aa(lp89
I6
aF2.1576881408691406e-05
aa(lp90
I6
aF1.9931793212890624e-05
aa(lp91
I6
aF2.1910667419433595e-05
aa(lp92
I6
aF2.1004676818847655e-05
aa(lp93
I6
aF2.1409988403320312e-05
aa(lp94
I7
aF3.1900405883789065e-05
aa(lp95
I7
aF2.1004676818847655e-05
aa(lp96
I7
aF2.1529197692871093e-05
aa(lp97
I7
aF1.9931793212890624e-05
aa(lp98
I7
aF2.8634071350097655e-05
aa(lp99
I7
aF2.1076202392578126e-05
aa(lp100
I7
aF2.5081634521484376e-05
aa(lp101
I8
aF3.838539123535156e-05
aa(lp102
I8
aF4.0435791015625e-05
aa(lp103
I8
aF2.1719932556152342e-05
aa(lp104
I8
aF2.02178955078125e-05
aa(lp105
I8
aF2.1910667419433595e-05
aa(lp106
I8
aF2.086162567138672e-05
aa(lp107
I8
aF2.1505355834960938e-05
aa(lp108
I8
aF2.193450927734375e-05
aa(lp109
I9
aF3.218650817871094e-05
aa(lp110
I9
aF2.048015594482422e-05
aa(lp111
I9
aF2.162456512451172e-05
aa(lp112
I9
aF2.2196769714355467e-05
aa(lp113
I9
aF2.238750457763672e-05
aa(lp114
I9
aF2.148151397705078e-05
aa(lp115
I9
aF2.0885467529296874e-05
aa(lp116
I9
aF2.1791458129882814e-05
aa(lp117
I9
aF2.2411346435546875e-05
aa(lp118
I10
aF3.2114982604980466e-05
aa(lp119
I10
aF2.0956993103027345e-05
aa(lp120
I10
aF2.143383026123047e-05
aa(lp121
I10
aF2.2101402282714844e-05
aa(lp122
I10
aF2.033710479736328e-05
aa(lp123
I10
aF2.160072326660156e-05
aa(lp124
I10
aF2.2101402282714844e-05
aa(lp125
I10
aF2.0837783813476564e-05
aa(lp126
I10
aF2.1719932556152342e-05
aa(lp127
I10
aF2.25067138671875e-05
aasb.